; Function Attrs: mustprogress uwtable
define hidden void @_ZN3smt15theory_datatype13oc_push_stackEPNS_5enodeE(ptr noundef nonnull align 8 dereferenceable(728) %this, ptr noundef %n) local_unnamed_addr #3 align 2 {
entry:
  %m_stack = getelementptr inbounds i8, ptr %this, i64 696
  %0 = load ptr, ptr %m_stack, align 8
  %cmp.i = icmp eq ptr %0, null
  br i1 %cmp.i, label %if.then.i, label %lor.lhs.false.i

lor.lhs.false.i:                                  ; preds = %entry
  %arrayidx.i = getelementptr inbounds i8, ptr %0, i64 -4
  %1 = load i32, ptr %arrayidx.i, align 4
  %arrayidx4.i = getelementptr inbounds i8, ptr %0, i64 -8
  %2 = load i32, ptr %arrayidx4.i, align 4
  %cmp5.i = icmp eq i32 %1, %2
  br i1 %cmp5.i, label %if.then.i, label %_ZN6vectorISt4pairIN3smt15theory_datatype8stack_opEPNS1_5enodeEELb0EjE9push_backEOS6_.exit

if.then.i:                                        ; preds = %lor.lhs.false.i, %entry
  tail call void @_ZN6vectorISt4pairIN3smt15theory_datatype8stack_opEPNS1_5enodeEELb0EjE13expand_vectorEv(ptr noundef nonnull align 8 dereferenceable(8) %m_stack)
  %.pre.i = load ptr, ptr %m_stack, align 8
  %arrayidx8.phi.trans.insert.i = getelementptr inbounds i8, ptr %.pre.i, i64 -4
  %.pre1.i = load i32, ptr %arrayidx8.phi.trans.insert.i, align 4
  br label %_ZN6vectorISt4pairIN3smt15theory_datatype8stack_opEPNS1_5enodeEELb0EjE9push_backEOS6_.exit

_ZN6vectorISt4pairIN3smt15theory_datatype8stack_opEPNS1_5enodeEELb0EjE9push_backEOS6_.exit: ; preds = %lor.lhs.false.i, %if.then.i
  %3 = phi i32 [ %.pre1.i, %if.then.i ], [ %1, %lor.lhs.false.i ]
  %4 = phi ptr [ %.pre.i, %if.then.i ], [ %0, %lor.lhs.false.i ]
  %idx.ext.i = zext i32 %3 to i64
  %add.ptr.i = getelementptr inbounds %"struct.std::pair", ptr %4, i64 %idx.ext.i
  store i32 1, ptr %add.ptr.i, align 8
  %ref.tmp.sroa.218.0.add.ptr.i.sroa_idx = getelementptr inbounds i8, ptr %add.ptr.i, i64 8
  store ptr %n, ptr %ref.tmp.sroa.218.0.add.ptr.i.sroa_idx, align 8
  %5 = load ptr, ptr %m_stack, align 8
  %arrayidx10.i = getelementptr inbounds i8, ptr %5, i64 -4
  %6 = load i32, ptr %arrayidx10.i, align 4
  %inc.i = add i32 %6, 1
  store i32 %inc.i, ptr %arrayidx10.i, align 4
  %7 = load ptr, ptr %m_stack, align 8
  %cmp.i3 = icmp eq ptr %7, null
  br i1 %cmp.i3, label %if.then.i12, label %lor.lhs.false.i4

lor.lhs.false.i4:                                 ; preds = %_ZN6vectorISt4pairIN3smt15theory_datatype8stack_opEPNS1_5enodeEELb0EjE9push_backEOS6_.exit
  %arrayidx.i5 = getelementptr inbounds i8, ptr %7, i64 -4
  %8 = load i32, ptr %arrayidx.i5, align 4
  %arrayidx4.i6 = getelementptr inbounds i8, ptr %7, i64 -8
  %9 = load i32, ptr %arrayidx4.i6, align 4
  %cmp5.i7 = icmp eq i32 %8, %9
  br i1 %cmp5.i7, label %if.then.i12, label %_ZN6vectorISt4pairIN3smt15theory_datatype8stack_opEPNS1_5enodeEELb0EjE9push_backEOS6_.exit16

if.then.i12:                                      ; preds = %lor.lhs.false.i4, %_ZN6vectorISt4pairIN3smt15theory_datatype8stack_opEPNS1_5enodeEELb0EjE9push_backEOS6_.exit
  tail call void @_ZN6vectorISt4pairIN3smt15theory_datatype8stack_opEPNS1_5enodeEELb0EjE13expand_vectorEv(ptr noundef nonnull align 8 dereferenceable(8) %m_stack)
  %.pre.i13 = load ptr, ptr %m_stack, align 8
  %arrayidx8.phi.trans.insert.i14 = getelementptr inbounds i8, ptr %.pre.i13, i64 -4
  %.pre1.i15 = load i32, ptr %arrayidx8.phi.trans.insert.i14, align 4
  br label %_ZN6vectorISt4pairIN3smt15theory_datatype8stack_opEPNS1_5enodeEELb0EjE9push_backEOS6_.exit16

_ZN6vectorISt4pairIN3smt15theory_datatype8stack_opEPNS1_5enodeEELb0EjE9push_backEOS6_.exit16: ; preds = %lor.lhs.false.i4, %if.then.i12
  %10 = phi i32 [ %.pre1.i15, %if.then.i12 ], [ %8, %lor.lhs.false.i4 ]
  %11 = phi ptr [ %.pre.i13, %if.then.i12 ], [ %7, %lor.lhs.false.i4 ]
  %idx.ext.i8 = zext i32 %10 to i64
  %add.ptr.i9 = getelementptr inbounds %"struct.std::pair", ptr %11, i64 %idx.ext.i8
  store i32 0, ptr %add.ptr.i9, align 8
  %ref.tmp5.sroa.217.0.add.ptr.i9.sroa_idx = getelementptr inbounds i8, ptr %add.ptr.i9, i64 8
  store ptr %n, ptr %ref.tmp5.sroa.217.0.add.ptr.i9.sroa_idx, align 8
  %12 = load ptr, ptr %m_stack, align 8
  %arrayidx10.i10 = getelementptr inbounds i8, ptr %12, i64 -4
  %13 = load i32, ptr %arrayidx10.i10, align 4
  %inc.i11 = add i32 %13, 1
  store i32 %inc.i11, ptr %arrayidx10.i10, align 4
  ret void
}